target datalayout = "e-m:e-p270:32:32-p271:32:32-p272:64:64-i64:64-i128:128-f80:128-n8:16:32:64-S128"
target triple = "x86_64-pc-linux-gnu"

%struct._asn1_ctx_t = type { i32, i32, i8, ptr, ptr, ptr, ptr, ptr, %struct.anon, %struct.anon.2, %struct.anon.3, ptr }
%struct.anon = type { i32, i8, i8, i8, ptr, ptr, i32, i32, ptr, ptr, ptr, %union.anon }
%union.anon = type { %struct.anon.0 }
%struct.anon.0 = type { ptr }
%struct.anon.2 = type { ptr, ptr, ptr }
%struct.anon.3 = type { i32, i8, ptr, i32, i32, ptr, ptr, ptr, %union.anon.4 }
%union.anon.4 = type { %struct.anon.5 }
%struct.anon.5 = type { ptr }
%struct.SESSION_DATA_STRUCTURE = type { i8, i8, i8, i32, i8 }

@app_proto = internal global i32 0, align 4
@.str.102 = private unnamed_addr constant [22 x i8] c"applicationProtocol.1\00", align 1
@.str.103 = private unnamed_addr constant [23 x i8] c"applicationProtocol.12\00", align 1
@top_tree = internal global ptr null, align 8

; Function Attrs: null_pointer_is_valid sspstrong uwtable
define internal i32 @dissect_rtse_T_open(i1 noundef zeroext %0, ptr noundef %1, i32 noundef %2, ptr noundef %3, ptr noundef %4, i32 noundef %5) #0 {
  %7 = alloca i8, align 1
  %8 = alloca ptr, align 8
  %9 = alloca i32, align 4
  %10 = alloca ptr, align 8
  %11 = alloca ptr, align 8
  %12 = alloca i32, align 4
  %13 = alloca ptr, align 8
  %14 = alloca ptr, align 8
  %15 = zext i1 %0 to i8
  store i8 %15, ptr %7, align 1
  store ptr %1, ptr %8, align 8
  store i32 %2, ptr %9, align 4
  store ptr %3, ptr %10, align 8
  store ptr %4, ptr %11, align 8
  store i32 %5, ptr %12, align 4
  call void @llvm.lifetime.start.p0(i64 8, ptr %13) #4
  %16 = load ptr, ptr %10, align 8
  %17 = getelementptr inbounds nuw %struct._asn1_ctx_t, ptr %16, i32 0, i32 7
  %18 = load ptr, ptr %17, align 8
  store ptr %18, ptr %13, align 8
  call void @llvm.lifetime.start.p0(i64 8, ptr %14) #4
  store ptr null, ptr %14, align 8
  %19 = load i32, ptr @app_proto, align 4
  switch i32 %19, label %22 [
    i32 1, label %20
    i32 12, label %21
  ]

20:                                               ; preds = %6
  store ptr @.str.102, ptr %14, align 8
  br label %41

21:                                               ; preds = %6
  store ptr @.str.103, ptr %14, align 8
  br label %41

22:                                               ; preds = %6
  %23 = load ptr, ptr %13, align 8
  %24 = icmp ne ptr %23, null
  br i1 %24, label %25, label %40

25:                                               ; preds = %22
  %26 = load ptr, ptr %13, align 8
  %27 = getelementptr inbounds nuw %struct.SESSION_DATA_STRUCTURE, ptr %26, i32 0, i32 2
  %28 = load i8, ptr %27, align 2
  %29 = zext i8 %28 to i32
  %30 = icmp ne i32 %29, 0
  br i1 %30, label %31, label %40

31:                                               ; preds = %25
  %32 = load ptr, ptr %10, align 8
  %33 = getelementptr inbounds nuw %struct._asn1_ctx_t, ptr %32, i32 0, i32 3
  %34 = load ptr, ptr %33, align 8
  %35 = load ptr, ptr %13, align 8
  %36 = getelementptr inbounds nuw %struct.SESSION_DATA_STRUCTURE, ptr %35, i32 0, i32 2
  %37 = load i8, ptr %36, align 2
  %38 = zext i8 %37 to i32
  %39 = call ptr @find_oid_by_pres_ctx_id(ptr noundef %34, i32 noundef %38)
  store ptr %39, ptr %14, align 8
  br label %40

40:                                               ; preds = %31, %25, %22
  br label %41

41:                                               ; preds = %40, %21, %20
  %42 = load ptr, ptr %14, align 8
  %43 = icmp ne ptr %42, null
  br i1 %43, label %45, label %44

44:                                               ; preds = %41
  store ptr @.str.103, ptr %14, align 8
  br label %45

45:                                               ; preds = %44, %41
  %46 = load ptr, ptr %14, align 8
  %47 = icmp ne ptr %46, null
  br i1 %47, label %48, label %65

48:                                               ; preds = %45
  %49 = load ptr, ptr %14, align 8
  %50 = load ptr, ptr %8, align 8
  %51 = load i32, ptr %9, align 4
  %52 = load ptr, ptr %10, align 8
  %53 = getelementptr inbounds nuw %struct._asn1_ctx_t, ptr %52, i32 0, i32 3
  %54 = load ptr, ptr %53, align 8
  %55 = load ptr, ptr @top_tree, align 8
  %56 = icmp ne ptr %55, null
  br i1 %56, label %57, label %59

57:                                               ; preds = %48
  %58 = load ptr, ptr @top_tree, align 8
  br label %61

59:                                               ; preds = %48
  %60 = load ptr, ptr %11, align 8
  br label %61

61:                                               ; preds = %59, %57
  %62 = phi ptr [ %58, %57 ], [ %60, %59 ]
  %63 = load ptr, ptr %13, align 8
  %64 = call i32 @call_rtse_oid_callback(ptr noundef %49, ptr noundef %50, i32 noundef %51, ptr noundef %54, ptr noundef %62, ptr noundef %63)
  store i32 %64, ptr %9, align 4
  br label %65

65:                                               ; preds = %61, %45
  %66 = load i32, ptr %9, align 4
  call void @llvm.lifetime.end.p0(i64 8, ptr %14) #4
  call void @llvm.lifetime.end.p0(i64 8, ptr %13) #4
  ret i32 %66
}