; Function Attrs: null_pointer_is_valid sspstrong uwtable
define internal i32 @dissect_rtse_T_open(i1 zeroext %0, ptr noundef %1, i32 noundef %2, ptr noundef readonly captures(none) %3, ptr noundef %4, i32 %5) #0 {
  %7 = getelementptr inbounds nuw i8, ptr %3, i64 48
  %8 = load ptr, ptr %7, align 8
  %9 = load i32, ptr @app_proto, align 4
  switch i32 %9, label %11 [
    i32 1, label %20
    i32 12, label %10
  ]

10:                                               ; preds = %6
  br label %20

11:                                               ; preds = %6
  %.not = icmp eq ptr %8, null
  br i1 %.not, label %20, label %12

12:                                               ; preds = %11
  %13 = getelementptr inbounds nuw i8, ptr %8, i64 2
  %14 = load i8, ptr %13, align 2
  %.not16 = icmp eq i8 %14, 0
  br i1 %.not16, label %20, label %15

15:                                               ; preds = %12
  %16 = zext i8 %14 to i32
  %17 = getelementptr inbounds nuw i8, ptr %3, i64 16
  %18 = load ptr, ptr %17, align 8
  %19 = tail call ptr @find_oid_by_pres_ctx_id(ptr noundef %18, i32 noundef %16)
  br label %20

20:                                               ; preds = %10, %15, %12, %11, %6
  %.0 = phi ptr [ %19, %15 ], [ null, %12 ], [ null, %11 ], [ @.str.103, %10 ], [ @.str.102, %6 ]
  %.not17 = icmp eq ptr %.0, null
  %spec.store.select = select i1 %.not17, ptr @.str.103, ptr %.0
  %21 = getelementptr inbounds nuw i8, ptr %3, i64 16
  %22 = load ptr, ptr %21, align 8
  %23 = load ptr, ptr @top_tree, align 8
  %.not18 = icmp eq ptr %23, null
  %24 = select i1 %.not18, ptr %4, ptr %23
  %25 = tail call fastcc i32 @call_rtse_oid_callback(ptr noundef nonnull %spec.store.select, ptr noundef %1, i32 noundef %2, ptr noundef %22, ptr noundef %24, ptr noundef %8)
  ret i32 %25
}